Certificate:
    Data:
        Version: 3 (0x2)
        Serial Number: 2 (0x2)
        Signature Algorithm: sha256WithRSAEncryption
        Issuer: O=Test Org, CN=Test Org rauc CA Development
        Validity
            Not Before: Jan  1 00:00:00 1970 GMT
            Not After : Dec 31 23:59:59 9999 GMT
        Subject: O=Test Org, CN=Test Org Development-1
        Subject Public Key Info:
            Public Key Algorithm: rsaEncryption
                RSA Public-Key: (2048 bit)
                Modulus:
                    00:bf:e6:10:be:d6:c9:58:f1:48:b5:43:3d:d5:7e:
                    8e:7a:57:bb:c4:59:e0:21:15:04:66:af:a2:54:ae:
                    6a:1e:4f:06:0c:0d:f8:e8:20:66:a2:0f:64:74:32:
                    a0:f4:7c:e5:71:1d:b1:a9:8a:88:ea:09:c3:7c:ff:
                    c8:7d:95:64:a4:a1:af:29:7c:58:d8:cc:3f:f7:4c:
                    c3:d0:71:c7:c2:17:f5:f8:6d:61:e1:a8:9b:c1:7d:
                    0a:d1:69:9d:3d:9f:1e:57:d9:0c:6f:41:6b:c9:88:
                    94:ba:cc:bd:01:3e:6c:2f:8d:de:30:04:17:62:0a:
                    7e:0f:26:cb:60:d5:30:03:ce:9c:b4:b8:73:17:cd:
                    f7:d5:17:64:ec:02:d6:e7:f0:9a:11:b9:dd:99:a2:
                    43:2a:ce:c0:63:2d:b7:16:84:48:d3:6a:cb:75:2d:
                    1e:26:3e:dd:ea:94:e3:98:0c:2a:cb:f5:e6:b4:a9:
                    85:cd:f1:57:72:eb:34:ae:74:af:87:7d:7c:27:be:
                    b7:9c:d4:a0:4e:38:d1:67:62:7b:71:8a:75:1e:70:
                    00:74:56:e7:53:11:63:d2:eb:f5:68:a3:24:45:5f:
                    ce:74:61:87:2c:6a:c2:20:42:fb:89:84:d0:c1:db:
                    9e:c1:74:8f:db:ff:e4:a8:77:40:2f:8b:19:e0:a6:
                    12:95
                Exponent: 65537 (0x10001)
        X509v3 extensions:
            X509v3 Subject Key Identifier: 
                70:73:33:68:B9:C6:D7:99:22:C5:D9:CD:15:27:C3:AD:DA:F7:A2:B0
            X509v3 Authority Key Identifier: 
                keyid:89:62:ED:B3:DE:57:98:DC:DE:01:2E:5A:B8:D2:74:0F:81:57:68:F2
                DirName:/O=Test Org/CN=Test Org rauc CA Development
                serial:01

            X509v3 Basic Constraints: 
                CA:FALSE
    Signature Algorithm: sha256WithRSAEncryption
         5d:2e:84:f6:89:8e:02:e5:93:3b:ee:e1:1f:56:96:c3:63:45:
         d2:23:e1:22:b4:19:74:87:73:b8:10:a9:52:52:2f:d5:c7:3f:
         28:5c:80:94:0a:6d:cc:38:ee:7e:73:04:6b:50:d0:72:e1:c5:
         3b:6f:e3:50:be:38:65:af:3d:40:69:c0:37:c3:10:bc:cc:8d:
         06:e9:79:0b:1f:05:ba:e5:b0:2a:a9:f0:7d:58:23:e2:c2:91:
         8c:94:9c:67:b8:d7:5a:a9:bb:f1:f0:d9:32:04:98:30:9b:42:
         5c:55:85:56:15:f1:79:8c:13:45:84:50:d9:96:f0:32:f8:79:
         84:78:fb:bf:3e:ac:96:f6:f0:02:f1:92:e3:ab:96:24:c5:ee:
         ac:cd:cd:f6:aa:fc:31:4e:ad:71:ca:1c:a1:e8:3b:1d:6f:91:
         60:66:e7:4b:1c:35:2b:38:2e:5d:55:ef:bf:9a:5b:82:83:b7:
         56:7b:3c:ba:b6:d6:85:72:10:fc:26:62:b7:2f:5a:b9:b4:28:
         1a:85:2f:51:4f:be:c4:7e:a7:ea:91:9a:f0:1e:3c:b4:0f:b6:
         51:53:42:f1:26:88:10:b7:9b:68:f0:c9:27:28:0c:7a:b9:3c:
         ca:5f:85:13:83:4b:93:27:0d:f2:c9:ee:dc:75:c0:3b:95:a9:
         4c:4e:86:47
-----BEGIN CERTIFICATE-----
MIIDfTCCAmWgAwIBAgIBAjANBgkqhkiG9w0BAQsFADA6MREwDwYDVQQKDAhUZXN0
IE9yZzElMCMGA1UEAwwcVGVzdCBPcmcgcmF1YyBDQSBEZXZlbG9wbWVudDAgFw03
MDAxMDEwMDAwMDBaGA85OTk5MTIzMTIzNTk1OVowNDERMA8GA1UECgwIVGVzdCBP
cmcxHzAdBgNVBAMMFlRlc3QgT3JnIERldmVsb3BtZW50LTEwggEiMA0GCSqGSIb3
DQEBAQUAA4IBDwAwggEKAoIBAQC/5hC+1slY8Ui1Qz3Vfo56V7vEWeAhFQRmr6JU
rmoeTwYMDfjoIGaiD2R0MqD0fOVxHbGpiojqCcN8/8h9lWSkoa8pfFjYzD/3TMPQ
ccfCF/X4bWHhqJvBfQrRaZ09nx5X2QxvQWvJiJS6zL0BPmwvjd4wBBdiCn4PJstg
1TADzpy0uHMXzffVF2TsAtbn8JoRud2ZokMqzsBjLbcWhEjTast1LR4mPt3qlOOY
DCrL9ea0qYXN8Vdy6zSudK+HfXwnvrec1KBOONFnYntxinUecAB0VudTEWPS6/Vo
oyRFX850YYcsasIgQvuJhNDB257BdI/b/+Sod0AvixngphKVAgMBAAGjgZEwgY4w
HQYDVR0OBBYEFHBzM2i5xteZIsXZzRUnw63a96KwMGIGA1UdIwRbMFmAFIli7bPe
V5jc3gEuWrjSdA+BV2jyoT6kPDA6MREwDwYDVQQKDAhUZXN0IE9yZzElMCMGA1UE
AwwcVGVzdCBPcmcgcmF1YyBDQSBEZXZlbG9wbWVudIIBATAJBgNVHRMEAjAAMA0G
CSqGSIb3DQEBCwUAA4IBAQBdLoT2iY4C5ZM77uEfVpbDY0XSI+EitBl0h3O4EKlS
Ui/Vxz8oXICUCm3MOO5+cwRrUNBy4cU7b+NQvjhlrz1AacA3wxC8zI0G6XkLHwW6
5bAqqfB9WCPiwpGMlJxnuNdaqbvx8NkyBJgwm0JcVYVWFfF5jBNFhFDZlvAy+HmE
ePu/PqyW9vAC8ZLjq5Ykxe6szc32qvwxTq1xyhyh6Dsdb5FgZudLHDUrOC5dVe+/
mluCg7dWezy6ttaFchD8JmK3L1q5tCgahS9RT77EfqfqkZrwHjy0D7ZRU0LxJogQ
t5to8MknKAx6uTzKX4UTg0uTJw3yye7cdcA7lalMToZH
-----END CERTIFICATE-----
