Certificate:
    Data:
        Version: 3 (0x2)
        Serial Number: 1 (0x1)
        Signature Algorithm: sha256WithRSAEncryption
        Issuer: O=Test Org, CN=Test Org rauc CA Development
        Validity
            Not Before: Jan  1 00:00:00 1970 GMT
            Not After : Dec 31 23:59:59 9999 GMT
        Subject: O=Test Org, CN=Test Org rauc CA Development
        Subject Public Key Info:
            Public Key Algorithm: rsaEncryption
                RSA Public-Key: (2048 bit)
                Modulus:
                    00:a6:8c:a4:c0:cd:13:59:ca:75:cd:b2:3f:62:a9:
                    bf:3d:9c:8e:7f:11:3a:6e:dc:0b:85:26:9c:e5:ec:
                    e8:fd:6d:eb:74:08:4e:78:23:c2:20:be:d0:07:0a:
                    6f:74:02:43:f3:3f:20:05:50:dd:b7:ea:00:cb:35:
                    db:b6:89:7a:cd:93:e6:28:85:e8:c9:98:c8:2a:e1:
                    f2:3d:51:8e:c3:19:d7:3f:a3:be:ad:d3:93:d5:23:
                    f5:30:10:2b:bf:79:c7:a1:0b:5b:ff:86:89:a4:fb:
                    dc:6f:3e:c0:d5:a5:d5:c2:32:61:3a:aa:2d:64:7f:
                    49:5a:b3:1c:d8:9c:7d:79:03:29:84:d5:e8:7c:ce:
                    8b:d3:d4:5b:3c:d9:5e:70:b0:23:7f:ab:b2:89:24:
                    13:48:3a:91:4d:a8:87:48:0f:39:d0:0e:63:e1:5d:
                    b8:17:bf:aa:6b:7f:56:7a:55:a9:33:e7:50:02:67:
                    5a:2d:4a:bb:76:9f:da:be:07:a6:c4:1e:3a:f6:d8:
                    12:5d:7e:00:4d:25:95:48:a3:f8:bc:71:3c:8a:15:
                    bd:cf:3f:e2:cf:eb:1b:82:34:e0:85:2f:43:b0:71:
                    01:0c:81:bf:ea:6f:29:64:5a:67:8d:8f:ec:41:65:
                    f1:a0:47:41:e6:bf:95:22:d2:1a:1c:32:aa:95:37:
                    bb:a3
                Exponent: 65537 (0x10001)
        X509v3 extensions:
            X509v3 Subject Key Identifier: 
                89:62:ED:B3:DE:57:98:DC:DE:01:2E:5A:B8:D2:74:0F:81:57:68:F2
            X509v3 Authority Key Identifier: 
                keyid:89:62:ED:B3:DE:57:98:DC:DE:01:2E:5A:B8:D2:74:0F:81:57:68:F2
                DirName:/O=Test Org/CN=Test Org rauc CA Development
                serial:01

            X509v3 Basic Constraints: 
                CA:TRUE
    Signature Algorithm: sha256WithRSAEncryption
         57:75:aa:83:0e:7a:b7:ca:25:45:58:ec:bf:02:36:cf:b5:73:
         f7:2e:14:66:b4:7b:7b:a3:51:fa:47:2b:0a:9d:20:5d:79:18:
         b6:2e:07:99:c1:92:88:dc:9f:61:46:de:77:a8:63:40:f7:a4:
         b1:21:d9:ec:82:ab:49:6b:bb:11:d9:4a:96:c5:de:e3:80:0a:
         c9:b9:68:7a:f0:8c:76:1c:e9:75:a7:4a:9b:a3:09:4f:df:af:
         05:cc:95:04:34:b0:75:37:45:c6:ab:61:3b:4c:72:60:d6:d4:
         48:4c:fb:fb:3d:18:5b:32:92:7b:5d:f4:02:ff:d6:34:90:dd:
         c5:37:4c:0c:72:fc:0d:87:63:41:81:80:58:41:69:e2:69:a8:
         51:9b:bb:76:da:77:e7:81:ed:07:8b:99:43:8f:b3:e0:de:10:
         c9:3c:6e:ba:e0:32:b5:95:e5:e6:e0:30:d8:19:10:d0:61:d9:
         f9:44:3c:7e:70:d6:88:03:fe:3a:50:9c:31:f0:19:27:41:ec:
         35:c0:37:52:9c:5e:81:29:20:a8:fe:04:bf:e7:38:78:55:d4:
         09:6f:ec:2c:39:9a:49:03:6d:0e:56:5f:ad:9d:87:fb:e1:74:
         93:96:10:dc:1d:db:b8:26:db:e9:e1:3f:cf:b4:82:ec:11:5d:
         d5:7f:c5:51
-----BEGIN CERTIFICATE-----
MIIDhjCCAm6gAwIBAgIBATANBgkqhkiG9w0BAQsFADA6MREwDwYDVQQKDAhUZXN0
IE9yZzElMCMGA1UEAwwcVGVzdCBPcmcgcmF1YyBDQSBEZXZlbG9wbWVudDAgFw03
MDAxMDEwMDAwMDBaGA85OTk5MTIzMTIzNTk1OVowOjERMA8GA1UECgwIVGVzdCBP
cmcxJTAjBgNVBAMMHFRlc3QgT3JnIHJhdWMgQ0EgRGV2ZWxvcG1lbnQwggEiMA0G
CSqGSIb3DQEBAQUAA4IBDwAwggEKAoIBAQCmjKTAzRNZynXNsj9iqb89nI5/ETpu
3AuFJpzl7Oj9bet0CE54I8IgvtAHCm90AkPzPyAFUN236gDLNdu2iXrNk+YohejJ
mMgq4fI9UY7DGdc/o76t05PVI/UwECu/ecehC1v/homk+9xvPsDVpdXCMmE6qi1k
f0lasxzYnH15AymE1eh8zovT1Fs82V5wsCN/q7KJJBNIOpFNqIdIDznQDmPhXbgX
v6prf1Z6Vakz51ACZ1otSrt2n9q+B6bEHjr22BJdfgBNJZVIo/i8cTyKFb3PP+LP
6xuCNOCFL0OwcQEMgb/qbylkWmeNj+xBZfGgR0Hmv5Ui0hocMqqVN7ujAgMBAAGj
gZQwgZEwHQYDVR0OBBYEFIli7bPeV5jc3gEuWrjSdA+BV2jyMGIGA1UdIwRbMFmA
FIli7bPeV5jc3gEuWrjSdA+BV2jyoT6kPDA6MREwDwYDVQQKDAhUZXN0IE9yZzEl
MCMGA1UEAwwcVGVzdCBPcmcgcmF1YyBDQSBEZXZlbG9wbWVudIIBATAMBgNVHRME
BTADAQH/MA0GCSqGSIb3DQEBCwUAA4IBAQBXdaqDDnq3yiVFWOy/AjbPtXP3LhRm
tHt7o1H6RysKnSBdeRi2LgeZwZKI3J9hRt53qGNA96SxIdnsgqtJa7sR2UqWxd7j
gArJuWh68Ix2HOl1p0qbowlP368FzJUENLB1N0XGq2E7THJg1tRITPv7PRhbMpJ7
XfQC/9Y0kN3FN0wMcvwNh2NBgYBYQWniaahRm7t22nfnge0Hi5lDj7Pg3hDJPG66
4DK1leXm4DDYGRDQYdn5RDx+cNaIA/46UJwx8BknQew1wDdSnF6BKSCo/gS/5zh4
VdQJb+wsOZpJA20OVl+tnYf74XSTlhDcHdu4Jtvp4T/PtILsEV3Vf8VR
-----END CERTIFICATE-----
